target datalayout = "e-m:e-p270:32:32-p271:32:32-p272:64:64-i64:64-i128:128-f80:128-n8:16:32:64-S128"
target triple = "x86_64-pc-linux-gnu"

%struct.ARKodeARKStepMemRec = type { ptr, ptr, i32, i32, i32, i32, i32, i32, ptr, ptr, ptr, ptr, ptr, ptr, i32, i32, i32, i32, ptr, ptr, ptr, ptr, i32, ptr, double, double, double, double, i32, double, double, double, double, double, double, i32, i64, i32, i32, i32, ptr, ptr, ptr, ptr, ptr, ptr, i32, ptr, ptr, ptr, ptr, ptr, ptr, i32, i32, i64, i64, i64, i64, i64, ptr, ptr, i32, i32, i32, double, double, ptr, i32, ptr, ptr }
%struct.ARKodeMemRec = type { ptr, double, ptr, i32, i32, double, double, ptr, i32, double, ptr, i32, i32, ptr, ptr, i32, ptr, ptr, i32, ptr, ptr, ptr, ptr, ptr, ptr, ptr, ptr, ptr, ptr, ptr, ptr, ptr, ptr, ptr, i32, ptr, ptr, i32, ptr, i32, ptr, ptr, ptr, ptr, ptr, ptr, ptr, ptr, ptr, ptr, ptr, ptr, ptr, ptr, ptr, ptr, ptr, ptr, ptr, ptr, ptr, ptr, ptr, ptr, ptr, ptr, i32, ptr, ptr, ptr, ptr, ptr, ptr, ptr, i32, ptr, ptr, ptr, i32, ptr, ptr, ptr, ptr, ptr, ptr, ptr, i32, i32, i32, i32, double, double, double, double, double, double, double, double, double, double, i32, ptr, i64, i32, i32, i32, i32, i64, i64, i32, i64, i64, i64, i64, i64, i64, i64, double, double, double, double, double, i32, double, double, i32, i32, i32, i32, i32, i32, i32, i32, ptr, i32, ptr, ptr, ptr, ptr, i32, i32, i32 }

@__func__.arkStep_SetOrder = private unnamed_addr constant [17 x i8] c"arkStep_SetOrder\00", align 1

; Function Attrs: nounwind uwtable
define i32 @arkStep_SetOrder(ptr noundef %0, i32 noundef %1) #0 {
  %3 = alloca i32, align 4
  %4 = alloca ptr, align 8
  %5 = alloca i32, align 4
  %6 = alloca ptr, align 8
  %7 = alloca i64, align 8
  %8 = alloca i64, align 8
  %9 = alloca i32, align 4
  %10 = alloca i32, align 4
  store ptr %0, ptr %4, align 8, !tbaa !20
  store i32 %1, ptr %5, align 4, !tbaa !7
  call void @llvm.lifetime.start.p0(i64 8, ptr %6) #4
  call void @llvm.lifetime.start.p0(i64 8, ptr %7) #4
  call void @llvm.lifetime.start.p0(i64 8, ptr %8) #4
  call void @llvm.lifetime.start.p0(i64 4, ptr %9) #4
  %11 = load ptr, ptr %4, align 8, !tbaa !20
  %12 = call i32 @arkStep_AccessStepMem(ptr noundef %11, ptr noundef @__func__.arkStep_SetOrder, ptr noundef %6)
  store i32 %12, ptr %9, align 4, !tbaa !7
  %13 = load i32, ptr %9, align 4, !tbaa !7
  %14 = icmp ne i32 %13, 0
  br i1 %14, label %15, label %17

15:                                               ; preds = %2
  %16 = load i32, ptr %9, align 4, !tbaa !7
  store i32 %16, ptr %3, align 4
  store i32 1, ptr %10, align 4
  br label %70

17:                                               ; preds = %2
  %18 = load i32, ptr %5, align 4, !tbaa !7
  %19 = icmp sle i32 %18, 0
  br i1 %19, label %20, label %23

20:                                               ; preds = %17
  %21 = load ptr, ptr %6, align 8, !tbaa !9
  %22 = getelementptr inbounds nuw %struct.ARKodeARKStepMemRec, ptr %21, i32 0, i32 14
  store i32 4, ptr %22, align 8, !tbaa !41
  br label %27

23:                                               ; preds = %17
  %24 = load i32, ptr %5, align 4, !tbaa !7
  %25 = load ptr, ptr %6, align 8, !tbaa !9
  %26 = getelementptr inbounds nuw %struct.ARKodeARKStepMemRec, ptr %25, i32 0, i32 14
  store i32 %24, ptr %26, align 8, !tbaa !41
  br label %27

27:                                               ; preds = %23, %20
  %28 = load ptr, ptr %6, align 8, !tbaa !9
  %29 = getelementptr inbounds nuw %struct.ARKodeARKStepMemRec, ptr %28, i32 0, i32 17
  store i32 0, ptr %29, align 4, !tbaa !40
  %30 = load ptr, ptr %6, align 8, !tbaa !9
  %31 = getelementptr inbounds nuw %struct.ARKodeARKStepMemRec, ptr %30, i32 0, i32 16
  store i32 0, ptr %31, align 8, !tbaa !79
  %32 = load ptr, ptr %6, align 8, !tbaa !9
  %33 = getelementptr inbounds nuw %struct.ARKodeARKStepMemRec, ptr %32, i32 0, i32 15
  store i32 0, ptr %33, align 4, !tbaa !42
  %34 = load ptr, ptr %6, align 8, !tbaa !9
  %35 = getelementptr inbounds nuw %struct.ARKodeARKStepMemRec, ptr %34, i32 0, i32 18
  %36 = load ptr, ptr %35, align 8, !tbaa !43
  call void @ARKodeButcherTable_Space(ptr noundef %36, ptr noundef %8, ptr noundef %7)
  %37 = load ptr, ptr %6, align 8, !tbaa !9
  %38 = getelementptr inbounds nuw %struct.ARKodeARKStepMemRec, ptr %37, i32 0, i32 18
  %39 = load ptr, ptr %38, align 8, !tbaa !43
  call void @ARKodeButcherTable_Free(ptr noundef %39)
  %40 = load ptr, ptr %6, align 8, !tbaa !9
  %41 = getelementptr inbounds nuw %struct.ARKodeARKStepMemRec, ptr %40, i32 0, i32 18
  store ptr null, ptr %41, align 8, !tbaa !43
  %42 = load i64, ptr %8, align 8, !tbaa !44
  %43 = load ptr, ptr %4, align 8, !tbaa !20
  %44 = getelementptr inbounds nuw %struct.ARKodeMemRec, ptr %43, i32 0, i32 116
  %45 = load i64, ptr %44, align 8, !tbaa !45
  %46 = sub nsw i64 %45, %42
  store i64 %46, ptr %44, align 8, !tbaa !45
  %47 = load i64, ptr %7, align 8, !tbaa !44
  %48 = load ptr, ptr %4, align 8, !tbaa !20
  %49 = getelementptr inbounds nuw %struct.ARKodeMemRec, ptr %48, i32 0, i32 115
  %50 = load i64, ptr %49, align 8, !tbaa !46
  %51 = sub nsw i64 %50, %47
  store i64 %51, ptr %49, align 8, !tbaa !46
  %52 = load ptr, ptr %6, align 8, !tbaa !9
  %53 = getelementptr inbounds nuw %struct.ARKodeARKStepMemRec, ptr %52, i32 0, i32 19
  %54 = load ptr, ptr %53, align 8, !tbaa !47
  call void @ARKodeButcherTable_Space(ptr noundef %54, ptr noundef %8, ptr noundef %7)
  %55 = load ptr, ptr %6, align 8, !tbaa !9
  %56 = getelementptr inbounds nuw %struct.ARKodeARKStepMemRec, ptr %55, i32 0, i32 19
  %57 = load ptr, ptr %56, align 8, !tbaa !47
  call void @ARKodeButcherTable_Free(ptr noundef %57)
  %58 = load ptr, ptr %6, align 8, !tbaa !9
  %59 = getelementptr inbounds nuw %struct.ARKodeARKStepMemRec, ptr %58, i32 0, i32 19
  store ptr null, ptr %59, align 8, !tbaa !47
  %60 = load i64, ptr %8, align 8, !tbaa !44
  %61 = load ptr, ptr %4, align 8, !tbaa !20
  %62 = getelementptr inbounds nuw %struct.ARKodeMemRec, ptr %61, i32 0, i32 116
  %63 = load i64, ptr %62, align 8, !tbaa !45
  %64 = sub nsw i64 %63, %60
  store i64 %64, ptr %62, align 8, !tbaa !45
  %65 = load i64, ptr %7, align 8, !tbaa !44
  %66 = load ptr, ptr %4, align 8, !tbaa !20
  %67 = getelementptr inbounds nuw %struct.ARKodeMemRec, ptr %66, i32 0, i32 115
  %68 = load i64, ptr %67, align 8, !tbaa !46
  %69 = sub nsw i64 %68, %65
  store i64 %69, ptr %67, align 8, !tbaa !46
  store i32 0, ptr %3, align 4
  store i32 1, ptr %10, align 4
  br label %70

70:                                               ; preds = %27, %15
  call void @llvm.lifetime.end.p0(i64 4, ptr %9) #4
  call void @llvm.lifetime.end.p0(i64 8, ptr %8) #4
  call void @llvm.lifetime.end.p0(i64 8, ptr %7) #4
  call void @llvm.lifetime.end.p0(i64 8, ptr %6) #4
  %71 = load i32, ptr %3, align 4
  ret i32 %71
}