; Function Attrs: nounwind uwtable
define i32 @arkStep_SetOrder(ptr noundef %0, i32 noundef %1) local_unnamed_addr #0 {
  %3 = alloca ptr, align 8
  %4 = alloca i64, align 8
  %5 = alloca i64, align 8
  call void @llvm.lifetime.start.p0(i64 8, ptr nonnull %3) #5
  call void @llvm.lifetime.start.p0(i64 8, ptr nonnull %4) #5
  call void @llvm.lifetime.start.p0(i64 8, ptr nonnull %5) #5
  %6 = call i32 @arkStep_AccessStepMem(ptr noundef %0, ptr noundef nonnull @__func__.arkStep_SetOrder, ptr noundef nonnull %3) #5
  %.not = icmp eq i32 %6, 0
  br i1 %.not, label %7, label %42

7:                                                ; preds = %2
  %8 = icmp slt i32 %1, 1
  %9 = load ptr, ptr %3, align 8, !tbaa !3
  %10 = getelementptr inbounds nuw i8, ptr %9, i64 88
  %. = select i1 %8, i32 4, i32 %1
  store i32 %., ptr %10, align 8, !tbaa !38
  %11 = getelementptr inbounds nuw i8, ptr %9, i64 100
  store i32 0, ptr %11, align 4, !tbaa !37
  %12 = getelementptr inbounds nuw i8, ptr %9, i64 96
  store i32 0, ptr %12, align 8, !tbaa !71
  %13 = getelementptr inbounds nuw i8, ptr %9, i64 92
  store i32 0, ptr %13, align 4, !tbaa !39
  %14 = getelementptr inbounds nuw i8, ptr %9, i64 104
  %15 = load ptr, ptr %14, align 8, !tbaa !40
  call void @ARKodeButcherTable_Space(ptr noundef %15, ptr noundef nonnull %5, ptr noundef nonnull %4) #5
  %16 = load ptr, ptr %3, align 8, !tbaa !3
  %17 = getelementptr inbounds nuw i8, ptr %16, i64 104
  %18 = load ptr, ptr %17, align 8, !tbaa !40
  call void @ARKodeButcherTable_Free(ptr noundef %18) #5
  %19 = load ptr, ptr %3, align 8, !tbaa !3
  %20 = getelementptr inbounds nuw i8, ptr %19, i64 104
  store ptr null, ptr %20, align 8, !tbaa !40
  %21 = load i64, ptr %5, align 8, !tbaa !41
  %22 = getelementptr inbounds nuw i8, ptr %0, i64 880
  %23 = load i64, ptr %22, align 8, !tbaa !42
  %24 = sub nsw i64 %23, %21
  store i64 %24, ptr %22, align 8, !tbaa !42
  %25 = load i64, ptr %4, align 8, !tbaa !41
  %26 = getelementptr inbounds nuw i8, ptr %0, i64 872
  %27 = load i64, ptr %26, align 8, !tbaa !43
  %28 = sub nsw i64 %27, %25
  store i64 %28, ptr %26, align 8, !tbaa !43
  %29 = getelementptr inbounds nuw i8, ptr %19, i64 112
  %30 = load ptr, ptr %29, align 8, !tbaa !44
  call void @ARKodeButcherTable_Space(ptr noundef %30, ptr noundef nonnull %5, ptr noundef nonnull %4) #5
  %31 = load ptr, ptr %3, align 8, !tbaa !3
  %32 = getelementptr inbounds nuw i8, ptr %31, i64 112
  %33 = load ptr, ptr %32, align 8, !tbaa !44
  call void @ARKodeButcherTable_Free(ptr noundef %33) #5
  %34 = load ptr, ptr %3, align 8, !tbaa !3
  %35 = getelementptr inbounds nuw i8, ptr %34, i64 112
  store ptr null, ptr %35, align 8, !tbaa !44
  %36 = load i64, ptr %5, align 8, !tbaa !41
  %37 = load i64, ptr %22, align 8, !tbaa !42
  %38 = sub nsw i64 %37, %36
  store i64 %38, ptr %22, align 8, !tbaa !42
  %39 = load i64, ptr %4, align 8, !tbaa !41
  %40 = load i64, ptr %26, align 8, !tbaa !43
  %41 = sub nsw i64 %40, %39
  store i64 %41, ptr %26, align 8, !tbaa !43
  br label %42

42:                                               ; preds = %2, %7
  call void @llvm.lifetime.end.p0(i64 8, ptr nonnull %5) #5
  call void @llvm.lifetime.end.p0(i64 8, ptr nonnull %4) #5
  call void @llvm.lifetime.end.p0(i64 8, ptr nonnull %3) #5
  ret i32 %6
}